; Function Attrs: nounwind uwtable
define ptr @l___private_Lean_Meta_LevelDefEq_0__Lean_Meta_mkMaxArgsDiff(ptr noundef %0, ptr noundef %1, ptr noundef %2) local_unnamed_addr #0 {
  br label %4

4:                                                ; preds = %lean_dec.exit28, %3
  %.026 = phi ptr [ %2, %3 ], [ %41, %lean_dec.exit28 ]
  %.025 = phi ptr [ %1, %3 ], [ %25, %lean_dec.exit28 ]
  %5 = ptrtoint ptr %.025 to i64
  %6 = and i64 %5, 1
  %.not.i35 = icmp eq i64 %6, 0
  br i1 %.not.i35, label %10, label %7

7:                                                ; preds = %4
  %8 = lshr i64 %5, 1
  %9 = trunc i64 %8 to i32
  br label %lean_obj_tag.exit

10:                                               ; preds = %4
  %11 = getelementptr i8, ptr %.025, i64 4
  %.val.i = load i32, ptr %11, align 4
  %12 = lshr i32 %.val.i, 24
  br label %lean_obj_tag.exit

lean_obj_tag.exit:                                ; preds = %7, %10
  %.0.i = phi i32 [ %9, %7 ], [ %12, %10 ]
  switch i32 %.0.i, label %74 [
    i32 2, label %13
    i32 5, label %42
  ]

13:                                               ; preds = %lean_obj_tag.exit
  %14 = getelementptr inbounds nuw i8, ptr %.025, i64 8
  %15 = load ptr, ptr %14, align 8, !tbaa !4
  %16 = ptrtoint ptr %15 to i64
  %17 = and i64 %16, 1
  %.not45 = icmp eq i64 %17, 0
  br i1 %.not45, label %18, label %lean_inc.exit

18:                                               ; preds = %13
  %.val.i36 = load i32, ptr %15, align 4, !tbaa !8
  %19 = icmp sgt i32 %.val.i36, 0
  br i1 %19, label %20, label %22, !prof !11

20:                                               ; preds = %18
  %21 = add nuw i32 %.val.i36, 1
  store i32 %21, ptr %15, align 4, !tbaa !8
  br label %lean_inc.exit

22:                                               ; preds = %18
  %.not.i37 = icmp eq i32 %.val.i36, 0
  br i1 %.not.i37, label %lean_inc.exit, label %23

23:                                               ; preds = %22
  tail call void @lean_inc_ref_cold(ptr noundef nonnull %15) #4
  br label %lean_inc.exit

lean_inc.exit:                                    ; preds = %23, %22, %20, %13
  %24 = getelementptr inbounds nuw i8, ptr %.025, i64 16
  %25 = load ptr, ptr %24, align 8, !tbaa !4
  %26 = ptrtoint ptr %25 to i64
  %27 = and i64 %26, 1
  %.not46 = icmp eq i64 %27, 0
  br i1 %.not46, label %28, label %lean_inc.exit29

28:                                               ; preds = %lean_inc.exit
  %.val.i38 = load i32, ptr %25, align 4, !tbaa !8
  %29 = icmp sgt i32 %.val.i38, 0
  br i1 %29, label %30, label %32, !prof !11

30:                                               ; preds = %28
  %31 = add nuw i32 %.val.i38, 1
  store i32 %31, ptr %25, align 4, !tbaa !8
  br label %lean_inc.exit29

32:                                               ; preds = %28
  %.not.i39 = icmp eq i32 %.val.i38, 0
  br i1 %.not.i39, label %lean_inc.exit29, label %33

33:                                               ; preds = %32
  tail call void @lean_inc_ref_cold(ptr noundef nonnull %25) #4
  br label %lean_inc.exit29

lean_inc.exit29:                                  ; preds = %33, %32, %30, %lean_inc.exit
  br i1 %.not.i35, label %34, label %lean_dec.exit28

34:                                               ; preds = %lean_inc.exit29
  %35 = load i32, ptr %.025, align 4, !tbaa !8
  %36 = icmp sgt i32 %35, 1
  br i1 %36, label %37, label %39, !prof !11

37:                                               ; preds = %34
  %38 = add nsw i32 %35, -1
  store i32 %38, ptr %.025, align 4, !tbaa !8
  br label %lean_dec.exit28

39:                                               ; preds = %34
  %.not.i = icmp eq i32 %35, 0
  br i1 %.not.i, label %lean_dec.exit28, label %40

40:                                               ; preds = %39
  tail call void @lean_dec_ref_cold(ptr noundef nonnull %.025) #4
  br label %lean_dec.exit28

lean_dec.exit28:                                  ; preds = %40, %39, %37, %lean_inc.exit29
  %41 = tail call ptr @l___private_Lean_Meta_LevelDefEq_0__Lean_Meta_mkMaxArgsDiff(ptr noundef %0, ptr noundef %15, ptr noundef %.026)
  br label %4

42:                                               ; preds = %lean_obj_tag.exit
  %43 = getelementptr inbounds nuw i8, ptr %.025, i64 8
  %44 = load ptr, ptr %43, align 8, !tbaa !4
  %45 = ptrtoint ptr %44 to i64
  %46 = and i64 %45, 1
  %.not = icmp eq i64 %46, 0
  br i1 %.not, label %47, label %lean_inc.exit30

47:                                               ; preds = %42
  %.val.i41 = load i32, ptr %44, align 4, !tbaa !8
  %48 = icmp sgt i32 %.val.i41, 0
  br i1 %48, label %49, label %51, !prof !11

49:                                               ; preds = %47
  %50 = add nuw i32 %.val.i41, 1
  store i32 %50, ptr %44, align 4, !tbaa !8
  br label %54

51:                                               ; preds = %47
  %.not.i42 = icmp eq i32 %.val.i41, 0
  br i1 %.not.i42, label %54, label %52

52:                                               ; preds = %51
  tail call void @lean_inc_ref_cold(ptr noundef nonnull %44) #4
  br label %54

lean_inc.exit30:                                  ; preds = %42
  %53 = tail call zeroext i8 @lean_name_eq(ptr noundef %44, ptr noundef %0) #4
  br label %lean_dec.exit27

54:                                               ; preds = %52, %51, %49
  %55 = tail call zeroext i8 @lean_name_eq(ptr noundef nonnull %44, ptr noundef %0) #4
  %56 = load i32, ptr %44, align 4, !tbaa !8
  %57 = icmp sgt i32 %56, 1
  br i1 %57, label %58, label %60, !prof !11

58:                                               ; preds = %54
  %59 = add nsw i32 %56, -1
  store i32 %59, ptr %44, align 4, !tbaa !8
  br label %lean_dec.exit27

60:                                               ; preds = %54
  %.not.i31 = icmp eq i32 %56, 0
  br i1 %.not.i31, label %lean_dec.exit27, label %61

61:                                               ; preds = %60
  tail call void @lean_dec_ref_cold(ptr noundef nonnull %44) #4
  br label %lean_dec.exit27

lean_dec.exit27:                                  ; preds = %61, %60, %58, %lean_inc.exit30
  %62 = phi i8 [ %53, %lean_inc.exit30 ], [ %55, %58 ], [ %55, %60 ], [ %55, %61 ]
  %63 = icmp eq i8 %62, 0
  br i1 %63, label %64, label %66

64:                                               ; preds = %lean_dec.exit27
  %65 = tail call ptr @l_Lean_mkLevelMax_x27(ptr noundef %.026, ptr noundef nonnull %.025) #4
  br label %lean_dec.exit

66:                                               ; preds = %lean_dec.exit27
  br i1 %.not.i35, label %67, label %lean_dec.exit

67:                                               ; preds = %66
  %68 = load i32, ptr %.025, align 4, !tbaa !8
  %69 = icmp sgt i32 %68, 1
  br i1 %69, label %70, label %72, !prof !11

70:                                               ; preds = %67
  %71 = add nsw i32 %68, -1
  store i32 %71, ptr %.025, align 4, !tbaa !8
  br label %lean_dec.exit

72:                                               ; preds = %67
  %.not.i33 = icmp eq i32 %68, 0
  br i1 %.not.i33, label %lean_dec.exit, label %73

73:                                               ; preds = %72
  tail call void @lean_dec_ref_cold(ptr noundef nonnull %.025) #4
  br label %lean_dec.exit

74:                                               ; preds = %lean_obj_tag.exit
  %75 = tail call ptr @l_Lean_mkLevelMax_x27(ptr noundef %.026, ptr noundef %.025) #4
  br label %lean_dec.exit

lean_dec.exit:                                    ; preds = %66, %70, %72, %73, %64, %74
  %.1 = phi ptr [ %75, %74 ], [ %65, %64 ], [ %.026, %73 ], [ %.026, %72 ], [ %.026, %70 ], [ %.026, %66 ]
  ret ptr %.1
}